target datalayout = "e-m:e-p270:32:32-p271:32:32-p272:64:64-i64:64-i128:128-f80:128-n8:16:32:64-S128"
target triple = "x86_64-pc-linux-gnu"

%struct.alloc_state = type { i32, ptr, ptr, i32, i32 }

; Function Attrs: nounwind uwtable
define dso_local void @clear_alloc_state(ptr noundef %0) #0 {
  %2 = alloca ptr, align 8
  store ptr %0, ptr %2, align 8, !tbaa !4
  br label %3

3:                                                ; preds = %8, %1
  %4 = load ptr, ptr %2, align 8, !tbaa !4
  %5 = getelementptr inbounds nuw %struct.alloc_state, ptr %4, i32 0, i32 3
  %6 = load i32, ptr %5, align 8, !tbaa !9
  %7 = icmp sgt i32 %6, 0
  br i1 %7, label %8, label %22

8:                                                ; preds = %3
  %9 = load ptr, ptr %2, align 8, !tbaa !4
  %10 = getelementptr inbounds nuw %struct.alloc_state, ptr %9, i32 0, i32 3
  %11 = load i32, ptr %10, align 8, !tbaa !9
  %12 = add nsw i32 %11, -1
  store i32 %12, ptr %10, align 8, !tbaa !9
  %13 = load ptr, ptr %2, align 8, !tbaa !4
  %14 = getelementptr inbounds nuw %struct.alloc_state, ptr %13, i32 0, i32 2
  %15 = load ptr, ptr %14, align 8, !tbaa !12
  %16 = load ptr, ptr %2, align 8, !tbaa !4
  %17 = getelementptr inbounds nuw %struct.alloc_state, ptr %16, i32 0, i32 3
  %18 = load i32, ptr %17, align 8, !tbaa !9
  %19 = sext i32 %18 to i64
  %20 = getelementptr inbounds ptr, ptr %15, i64 %19
  %21 = load ptr, ptr %20, align 8, !tbaa !13
  call void @free(ptr noundef %21) #7
  br label %3, !llvm.loop !14

22:                                               ; preds = %3
  br label %23

23:                                               ; preds = %22
  %24 = load ptr, ptr %2, align 8, !tbaa !4
  %25 = getelementptr inbounds nuw %struct.alloc_state, ptr %24, i32 0, i32 2
  %26 = load ptr, ptr %25, align 8, !tbaa !12
  call void @free(ptr noundef %26) #7
  %27 = load ptr, ptr %2, align 8, !tbaa !4
  %28 = getelementptr inbounds nuw %struct.alloc_state, ptr %27, i32 0, i32 2
  store ptr null, ptr %28, align 8, !tbaa !12
  br label %29

29:                                               ; preds = %23
  ret void
}