; Function Attrs: nounwind uwtable
define dso_local void @clear_alloc_state(ptr noundef captures(none) %0) local_unnamed_addr #0 {
  %2 = getelementptr inbounds nuw i8, ptr %0, i64 24
  %3 = load i32, ptr %2, align 8, !tbaa !4
  %4 = icmp sgt i32 %3, 0
  br i1 %4, label %.lr.ph, label %._crit_edge

.lr.ph:                                           ; preds = %1
  %5 = getelementptr inbounds nuw i8, ptr %0, i64 16
  br label %6

6:                                                ; preds = %.lr.ph, %6
  %7 = phi i32 [ %3, %.lr.ph ], [ %13, %6 ]
  %8 = add nsw i32 %7, -1
  store i32 %8, ptr %2, align 8, !tbaa !4
  %9 = load ptr, ptr %5, align 8, !tbaa !10
  %10 = zext nneg i32 %8 to i64
  %11 = getelementptr inbounds nuw ptr, ptr %9, i64 %10
  %12 = load ptr, ptr %11, align 8, !tbaa !11
  tail call void @free(ptr noundef %12) #6
  %13 = load i32, ptr %2, align 8, !tbaa !4
  %14 = icmp sgt i32 %13, 0
  br i1 %14, label %6, label %._crit_edge, !llvm.loop !12

._crit_edge:                                      ; preds = %6, %1
  %15 = getelementptr inbounds nuw i8, ptr %0, i64 16
  %16 = load ptr, ptr %15, align 8, !tbaa !10
  tail call void @free(ptr noundef %16) #6
  store ptr null, ptr %15, align 8, !tbaa !10
  ret void
}